target datalayout = "e-m:e-p270:32:32-p271:32:32-p272:64:64-i64:64-i128:128-f80:128-n8:16:32:64-S128"
target triple = "x86_64-unknown-linux-gnu"

%"class.spacer::model_node" = type <{ %class.ref, ptr, %class.ptr_vector, ptr, ptr, i32, i32, i8, [7 x i8] }>
%class.ref = type { ptr }
%class.ptr_vector = type { %class.vector }
%class.vector = type { ptr }

; Function Attrs: mustprogress nounwind uwtable
define hidden void @_ZN6spacer10model_node12insert_afterEPS0_(ptr noundef nonnull align 8 dereferenceable(49) %this, ptr noundef %n) #5 align 2 {
entry:
  %this.addr = alloca ptr, align 8
  %n.addr = alloca ptr, align 8
  store ptr %this, ptr %this.addr, align 8
  store ptr %n, ptr %n.addr, align 8
  %this1 = load ptr, ptr %this.addr, align 8
  %0 = load ptr, ptr %n.addr, align 8
  %cmp = icmp eq ptr %this1, %0
  br i1 %cmp, label %if.then, label %if.else

if.then:                                          ; preds = %entry
  %1 = load ptr, ptr %n.addr, align 8
  %m_next = getelementptr inbounds %"class.spacer::model_node", ptr %this1, i32 0, i32 3
  store ptr %1, ptr %m_next, align 8
  %2 = load ptr, ptr %n.addr, align 8
  %m_prev = getelementptr inbounds %"class.spacer::model_node", ptr %this1, i32 0, i32 4
  store ptr %2, ptr %m_prev, align 8
  br label %if.end

if.else:                                          ; preds = %entry
  %m_next2 = getelementptr inbounds %"class.spacer::model_node", ptr %this1, i32 0, i32 3
  %3 = load ptr, ptr %m_next2, align 8
  %4 = load ptr, ptr %n.addr, align 8
  %m_next3 = getelementptr inbounds %"class.spacer::model_node", ptr %4, i32 0, i32 3
  store ptr %3, ptr %m_next3, align 8
  %5 = load ptr, ptr %n.addr, align 8
  %m_next4 = getelementptr inbounds %"class.spacer::model_node", ptr %this1, i32 0, i32 3
  %6 = load ptr, ptr %m_next4, align 8
  %m_prev5 = getelementptr inbounds %"class.spacer::model_node", ptr %6, i32 0, i32 4
  store ptr %5, ptr %m_prev5, align 8
  %7 = load ptr, ptr %n.addr, align 8
  %m_next6 = getelementptr inbounds %"class.spacer::model_node", ptr %this1, i32 0, i32 3
  store ptr %7, ptr %m_next6, align 8
  %8 = load ptr, ptr %n.addr, align 8
  %m_prev7 = getelementptr inbounds %"class.spacer::model_node", ptr %8, i32 0, i32 4
  store ptr %this1, ptr %m_prev7, align 8
  br label %if.end

if.end:                                           ; preds = %if.else, %if.then
  ret void
}