; Function Attrs: mustprogress nofree norecurse nosync nounwind willreturn memory(write, argmem: readwrite, inaccessiblemem: none) uwtable
define hidden void @_ZN6spacer10model_node12insert_afterEPS0_(ptr noundef nonnull align 8 dereferenceable(49) %this, ptr noundef %n) local_unnamed_addr #7 align 2 {
entry:
  %cmp = icmp eq ptr %this, %n
  %m_next = getelementptr inbounds i8, ptr %this, i64 24
  br i1 %cmp, label %if.end, label %if.else

if.else:                                          ; preds = %entry
  %0 = load ptr, ptr %m_next, align 8
  %m_next3 = getelementptr inbounds i8, ptr %n, i64 24
  store ptr %0, ptr %m_next3, align 8
  %m_prev5 = getelementptr inbounds i8, ptr %0, i64 32
  store ptr %n, ptr %m_prev5, align 8
  br label %if.end

if.end:                                           ; preds = %entry, %if.else
  %n.sink7 = phi ptr [ %n, %if.else ], [ %this, %entry ]
  store ptr %n.sink7, ptr %m_next, align 8
  %m_prev7 = getelementptr inbounds i8, ptr %n.sink7, i64 32
  store ptr %this, ptr %m_prev7, align 8
  ret void
}